target datalayout = "e-m:e-p270:32:32-p271:32:32-p272:64:64-i64:64-i128:128-f80:128-n8:16:32:64-S128"
target triple = "x86_64-pc-linux-gnu"

%struct.URLContext = type { ptr, ptr, ptr, ptr, i32, i32, i32, i32, %struct.AVIOInterruptCB, i64, ptr, ptr, i32 }
%struct.AVIOInterruptCB = type { ptr, ptr }
%struct.FTPContext = type { ptr, ptr, ptr, [1024 x i8], ptr, ptr, i32, i32, ptr, ptr, ptr, ptr, i64, i64, i32, ptr, i32, i32, i32, ptr, ptr, i64, i64, i32, ptr, ptr }

@ftp_set_dir.cwd_codes = internal constant [3 x i32] [i32 250, i32 550, i32 0], align 4
@.str.48 = private unnamed_addr constant [9 x i8] c"CWD %s\0D\0A\00", align 1
@ftp_list_mlsd.command = internal global ptr @.str.49, align 8
@ftp_list_mlsd.mlsd_codes = internal constant [3 x i32] [i32 150, i32 500, i32 0], align 4
@ftp_list_nlst.command = internal global ptr @.str.50, align 8
@ftp_list_nlst.nlst_codes = internal constant [7 x i32] [i32 226, i32 425, i32 426, i32 451, i32 450, i32 550, i32 0], align 16

; Function Attrs: inlinehint nounwind uwtable
define internal i32 @ffurl_write(ptr noundef %0, ptr noundef %1, i32 noundef %2) #3 {
  %4 = alloca ptr, align 8
  %5 = alloca ptr, align 8
  %6 = alloca i32, align 4
  store ptr %0, ptr %4, align 8, !tbaa !4
  store ptr %1, ptr %5, align 8, !tbaa !9
  store i32 %2, ptr %6, align 4, !tbaa !11
  %7 = load ptr, ptr %4, align 8, !tbaa !4
  %8 = load ptr, ptr %5, align 8, !tbaa !9
  %9 = load i32, ptr %6, align 4, !tbaa !11
  %10 = call i32 @ffurl_write2(ptr noundef %7, ptr noundef %8, i32 noundef %9)
  ret i32 %10
}

; Function Attrs: nounwind uwtable
define internal i32 @ftp_list_nlst(ptr noundef %0) #0 {
  %2 = alloca i32, align 4
  %3 = alloca ptr, align 8
  store ptr %0, ptr %3, align 8, !tbaa !19
  %4 = load ptr, ptr %3, align 8, !tbaa !19
  %5 = load ptr, ptr @ftp_list_nlst.command, align 8, !tbaa !9
  %6 = call i32 @ftp_send_command(ptr noundef %4, ptr noundef %5, ptr noundef @ftp_list_nlst.nlst_codes, ptr noundef null)
  %7 = icmp ne i32 %6, 226
  br i1 %7, label %8, label %9

8:                                                ; preds = %1
  store i32 -38, ptr %2, align 4
  br label %12

9:                                                ; preds = %1
  %10 = load ptr, ptr %3, align 8, !tbaa !19
  %11 = getelementptr inbounds nuw %struct.FTPContext, ptr %10, i32 0, i32 18
  store i32 1, ptr %11, align 8, !tbaa !45
  store i32 0, ptr %2, align 4
  br label %12

12:                                               ; preds = %9, %8
  %13 = load i32, ptr %2, align 4
  ret i32 %13
}

; Function Attrs: nounwind uwtable
define internal i32 @ftp_list_mlsd(ptr noundef %0) #0 {
  %2 = alloca i32, align 4
  %3 = alloca ptr, align 8
  store ptr %0, ptr %3, align 8, !tbaa !19
  %4 = load ptr, ptr %3, align 8, !tbaa !19
  %5 = load ptr, ptr @ftp_list_mlsd.command, align 8, !tbaa !9
  %6 = call i32 @ftp_send_command(ptr noundef %4, ptr noundef %5, ptr noundef @ftp_list_mlsd.mlsd_codes, ptr noundef null)
  %7 = icmp ne i32 %6, 150
  br i1 %7, label %8, label %9

8:                                                ; preds = %1
  store i32 -38, ptr %2, align 4
  br label %12

9:                                                ; preds = %1
  %10 = load ptr, ptr %3, align 8, !tbaa !19
  %11 = getelementptr inbounds nuw %struct.FTPContext, ptr %10, i32 0, i32 18
  store i32 2, ptr %11, align 8, !tbaa !45
  store i32 0, ptr %2, align 4
  br label %12

12:                                               ; preds = %9, %8
  %13 = load i32, ptr %2, align 4
  ret i32 %13
}

; Function Attrs: nounwind uwtable
define internal i32 @ftp_send_command(ptr noundef %0, ptr noundef %1, ptr noundef %2, ptr noundef %3) #0 {
  %5 = alloca i32, align 4
  %6 = alloca ptr, align 8
  %7 = alloca ptr, align 8
  %8 = alloca ptr, align 8
  %9 = alloca ptr, align 8
  %10 = alloca i32, align 4
  %11 = alloca i32, align 4
  store ptr %0, ptr %6, align 8, !tbaa !19
  store ptr %1, ptr %7, align 8, !tbaa !9
  store ptr %2, ptr %8, align 8, !tbaa !64
  store ptr %3, ptr %9, align 8, !tbaa !62
  call void @llvm.lifetime.start.p0(i64 4, ptr %10) #9
  br label %12

12:                                               ; preds = %4
  br label %13

13:                                               ; preds = %12
  br label %14

14:                                               ; preds = %13
  %15 = load ptr, ptr %9, align 8, !tbaa !62
  %16 = icmp ne ptr %15, null
  br i1 %16, label %17, label %19

17:                                               ; preds = %14
  %18 = load ptr, ptr %9, align 8, !tbaa !62
  store ptr null, ptr %18, align 8, !tbaa !9
  br label %19

19:                                               ; preds = %17, %14
  %20 = load ptr, ptr %6, align 8, !tbaa !19
  %21 = getelementptr inbounds nuw %struct.FTPContext, ptr %20, i32 0, i32 1
  %22 = load ptr, ptr %21, align 8, !tbaa !56
  %23 = icmp ne ptr %22, null
  br i1 %23, label %25, label %24

24:                                               ; preds = %19
  store i32 -5, ptr %5, align 4
  store i32 1, ptr %11, align 4
  br label %50

25:                                               ; preds = %19
  %26 = load ptr, ptr %6, align 8, !tbaa !19
  %27 = getelementptr inbounds nuw %struct.FTPContext, ptr %26, i32 0, i32 1
  %28 = load ptr, ptr %27, align 8, !tbaa !56
  %29 = load ptr, ptr %7, align 8, !tbaa !9
  %30 = load ptr, ptr %7, align 8, !tbaa !9
  %31 = call i64 @strlen(ptr noundef %30) #10
  %32 = trunc i64 %31 to i32
  %33 = call i32 @ffurl_write(ptr noundef %28, ptr noundef %29, i32 noundef %32)
  store i32 %33, ptr %10, align 4, !tbaa !11
  %34 = icmp slt i32 %33, 0
  br i1 %34, label %35, label %37

35:                                               ; preds = %25
  %36 = load i32, ptr %10, align 4, !tbaa !11
  store i32 %36, ptr %5, align 4
  store i32 1, ptr %11, align 4
  br label %50

37:                                               ; preds = %25
  %38 = load i32, ptr %10, align 4, !tbaa !11
  %39 = icmp ne i32 %38, 0
  br i1 %39, label %41, label %40

40:                                               ; preds = %37
  store i32 -1, ptr %5, align 4
  store i32 1, ptr %11, align 4
  br label %50

41:                                               ; preds = %37
  %42 = load ptr, ptr %8, align 8, !tbaa !64
  %43 = icmp ne ptr %42, null
  br i1 %43, label %44, label %49

44:                                               ; preds = %41
  %45 = load ptr, ptr %6, align 8, !tbaa !19
  %46 = load ptr, ptr %9, align 8, !tbaa !62
  %47 = load ptr, ptr %8, align 8, !tbaa !64
  %48 = call i32 @ftp_status(ptr noundef %45, ptr noundef %46, ptr noundef %47)
  store i32 %48, ptr %5, align 4
  store i32 1, ptr %11, align 4
  br label %50

49:                                               ; preds = %41
  store i32 0, ptr %5, align 4
  store i32 1, ptr %11, align 4
  br label %50

50:                                               ; preds = %49, %44, %40, %35, %24
  call void @llvm.lifetime.end.p0(i64 4, ptr %10) #9
  %51 = load i32, ptr %5, align 4
  ret i32 %51
}

; Function Attrs: nounwind uwtable
define internal i32 @ftp_list(ptr noundef %0) #0 {
  %2 = alloca ptr, align 8
  %3 = alloca i32, align 4
  store ptr %0, ptr %2, align 8, !tbaa !19
  call void @llvm.lifetime.start.p0(i64 4, ptr %3) #9
  %4 = load ptr, ptr %2, align 8, !tbaa !19
  %5 = getelementptr inbounds nuw %struct.FTPContext, ptr %4, i32 0, i32 17
  store i32 4, ptr %5, align 4, !tbaa !23
  %6 = load ptr, ptr %2, align 8, !tbaa !19
  %7 = call i32 @ftp_list_mlsd(ptr noundef %6)
  store i32 %7, ptr %3, align 4, !tbaa !11
  %8 = icmp slt i32 %7, 0
  br i1 %8, label %9, label %12

9:                                                ; preds = %1
  %10 = load ptr, ptr %2, align 8, !tbaa !19
  %11 = call i32 @ftp_list_nlst(ptr noundef %10)
  store i32 %11, ptr %3, align 4, !tbaa !11
  br label %12

12:                                               ; preds = %9, %1
  %13 = load i32, ptr %3, align 4, !tbaa !11
  call void @llvm.lifetime.end.p0(i64 4, ptr %3) #9
  ret i32 %13
}

; Function Attrs: nounwind uwtable
define internal i32 @ftp_set_dir(ptr noundef %0) #0 {
  %2 = alloca i32, align 4
  %3 = alloca ptr, align 8
  %4 = alloca [4096 x i8], align 16
  %5 = alloca i32, align 4
  %6 = alloca i32, align 4
  store ptr %0, ptr %3, align 8, !tbaa !19
  call void @llvm.lifetime.start.p0(i64 4096, ptr %4) #9
  call void @llvm.lifetime.start.p0(i64 4, ptr %5) #9
  %7 = getelementptr inbounds [4096 x i8], ptr %4, i64 0, i64 0
  %8 = load ptr, ptr %3, align 8, !tbaa !19
  %9 = getelementptr inbounds nuw %struct.FTPContext, ptr %8, i32 0, i32 11
  %10 = load ptr, ptr %9, align 8, !tbaa !44
  %11 = call i32 (ptr, i64, ptr, ...) @snprintf(ptr noundef %7, i64 noundef 4096, ptr noundef @.str.48, ptr noundef %10) #9
  store i32 %11, ptr %5, align 4, !tbaa !11
  %12 = load i32, ptr %5, align 4, !tbaa !11
  %13 = sext i32 %12 to i64
  %14 = icmp uge i64 %13, 4096
  br i1 %14, label %15, label %16

15:                                               ; preds = %1
  store i32 -38, ptr %2, align 4
  store i32 1, ptr %6, align 4
  br label %23

16:                                               ; preds = %1
  %17 = load ptr, ptr %3, align 8, !tbaa !19
  %18 = getelementptr inbounds [4096 x i8], ptr %4, i64 0, i64 0
  %19 = call i32 @ftp_send_command(ptr noundef %17, ptr noundef %18, ptr noundef @ftp_set_dir.cwd_codes, ptr noundef null)
  %20 = icmp ne i32 %19, 250
  br i1 %20, label %21, label %22

21:                                               ; preds = %16
  store i32 -5, ptr %2, align 4
  store i32 1, ptr %6, align 4
  br label %23

22:                                               ; preds = %16
  store i32 0, ptr %2, align 4
  store i32 1, ptr %6, align 4
  br label %23

23:                                               ; preds = %22, %21, %15
  call void @llvm.lifetime.end.p0(i64 4, ptr %5) #9
  call void @llvm.lifetime.end.p0(i64 4096, ptr %4) #9
  %24 = load i32, ptr %2, align 4
  ret i32 %24
}

; Function Attrs: nounwind uwtable
define internal i32 @ftp_open_dir(ptr noundef %0) #0 {
  %2 = alloca i32, align 4
  %3 = alloca ptr, align 8
  %4 = alloca ptr, align 8
  %5 = alloca i32, align 4
  %6 = alloca i32, align 4
  store ptr %0, ptr %3, align 8, !tbaa !4
  call void @llvm.lifetime.start.p0(i64 8, ptr %4) #9
  %7 = load ptr, ptr %3, align 8, !tbaa !4
  %8 = getelementptr inbounds nuw %struct.URLContext, ptr %7, i32 0, i32 2
  %9 = load ptr, ptr %8, align 8, !tbaa !13
  store ptr %9, ptr %4, align 8, !tbaa !19
  call void @llvm.lifetime.start.p0(i64 4, ptr %5) #9
  %10 = load ptr, ptr %3, align 8, !tbaa !4
  %11 = load ptr, ptr %3, align 8, !tbaa !4
  %12 = getelementptr inbounds nuw %struct.URLContext, ptr %11, i32 0, i32 3
  %13 = load ptr, ptr %12, align 8, !tbaa !28
  %14 = call i32 @ftp_connect(ptr noundef %10, ptr noundef %13)
  store i32 %14, ptr %5, align 4, !tbaa !11
  %15 = icmp slt i32 %14, 0
  br i1 %15, label %16, label %17

16:                                               ; preds = %1
  br label %57

17:                                               ; preds = %1
  %18 = load ptr, ptr %4, align 8, !tbaa !19
  %19 = call i32 @ftp_set_dir(ptr noundef %18)
  store i32 %19, ptr %5, align 4, !tbaa !11
  %20 = icmp slt i32 %19, 0
  br i1 %20, label %21, label %22

21:                                               ; preds = %17
  br label %57

22:                                               ; preds = %17
  %23 = load ptr, ptr %3, align 8, !tbaa !4
  %24 = call i32 @ftp_connect_data_connection(ptr noundef %23)
  store i32 %24, ptr %5, align 4, !tbaa !11
  %25 = icmp slt i32 %24, 0
  br i1 %25, label %26, label %27

26:                                               ; preds = %22
  br label %57

27:                                               ; preds = %22
  %28 = load ptr, ptr %4, align 8, !tbaa !19
  %29 = call i32 @ftp_list(ptr noundef %28)
  store i32 %29, ptr %5, align 4, !tbaa !11
  %30 = icmp slt i32 %29, 0
  br i1 %30, label %31, label %32

31:                                               ; preds = %27
  br label %57

32:                                               ; preds = %27
  %33 = call noalias ptr @av_malloc(i64 noundef 4096)
  %34 = load ptr, ptr %4, align 8, !tbaa !19
  %35 = getelementptr inbounds nuw %struct.FTPContext, ptr %34, i32 0, i32 20
  store ptr %33, ptr %35, align 8, !tbaa !29
  %36 = load ptr, ptr %4, align 8, !tbaa !19
  %37 = getelementptr inbounds nuw %struct.FTPContext, ptr %36, i32 0, i32 20
  %38 = load ptr, ptr %37, align 8, !tbaa !29
  %39 = icmp ne ptr %38, null
  br i1 %39, label %41, label %40

40:                                               ; preds = %32
  store i32 -12, ptr %5, align 4, !tbaa !11
  br label %57

41:                                               ; preds = %32
  %42 = load ptr, ptr %4, align 8, !tbaa !19
  %43 = getelementptr inbounds nuw %struct.FTPContext, ptr %42, i32 0, i32 20
  %44 = load ptr, ptr %43, align 8, !tbaa !29
  %45 = getelementptr inbounds i8, ptr %44, i64 0
  store i8 0, ptr %45, align 1, !tbaa !30
  %46 = load ptr, ptr %4, align 8, !tbaa !19
  %47 = getelementptr inbounds nuw %struct.FTPContext, ptr %46, i32 0, i32 2
  %48 = load ptr, ptr %47, align 8, !tbaa !24
  %49 = icmp ne ptr %48, null
  br i1 %49, label %50, label %56

50:                                               ; preds = %41
  %51 = load ptr, ptr %4, align 8, !tbaa !19
  %52 = getelementptr inbounds nuw %struct.FTPContext, ptr %51, i32 0, i32 17
  %53 = load i32, ptr %52, align 4, !tbaa !23
  %54 = icmp eq i32 %53, 4
  br i1 %54, label %55, label %56

55:                                               ; preds = %50
  store i32 0, ptr %2, align 4
  store i32 1, ptr %6, align 4
  br label %65

56:                                               ; preds = %50, %41
  br label %57

57:                                               ; preds = %56, %40, %31, %26, %21, %16
  %58 = load ptr, ptr %4, align 8, !tbaa !19
  %59 = getelementptr inbounds nuw %struct.FTPContext, ptr %58, i32 0, i32 1
  %60 = call i32 @ffurl_closep(ptr noundef %59)
  %61 = load ptr, ptr %4, align 8, !tbaa !19
  %62 = getelementptr inbounds nuw %struct.FTPContext, ptr %61, i32 0, i32 2
  %63 = call i32 @ffurl_closep(ptr noundef %62)
  %64 = load i32, ptr %5, align 4, !tbaa !11
  store i32 %64, ptr %2, align 4
  store i32 1, ptr %6, align 4
  br label %65

65:                                               ; preds = %57, %55
  call void @llvm.lifetime.end.p0(i64 4, ptr %5) #9
  call void @llvm.lifetime.end.p0(i64 8, ptr %4) #9
  %66 = load i32, ptr %2, align 4
  ret i32 %66
}