; Function Attrs: nounwind uwtable
define internal range(i32 -2147483648, 1) i32 @ftp_open_dir(ptr noundef %0) #0 {
  %2 = alloca [4096 x i8], align 16
  %3 = getelementptr inbounds nuw i8, ptr %0, i64 16
  %4 = load ptr, ptr %3, align 8, !tbaa !4
  %5 = getelementptr inbounds nuw i8, ptr %0, i64 24
  %6 = load ptr, ptr %5, align 8, !tbaa !26
  %7 = tail call fastcc i32 @ftp_connect(ptr noundef %0, ptr noundef %6)
  %8 = icmp slt i32 %7, 0
  br i1 %8, label %ftp_list.exit.thread, label %9

9:                                                ; preds = %1
  call void @llvm.lifetime.start.p0(i64 4096, ptr nonnull %2) #10
  %10 = getelementptr inbounds nuw i8, ptr %4, i64 1096
  %11 = load ptr, ptr %10, align 8, !tbaa !19
  %12 = call i32 (ptr, i64, ptr, ...) @snprintf(ptr noundef nonnull dereferenceable(1) %2, i64 noundef 4096, ptr noundef nonnull @.str.48, ptr noundef %11) #10
  %13 = icmp ugt i32 %12, 4095
  br i1 %13, label %ftp_set_dir.exit.thread, label %14

14:                                               ; preds = %9
  %15 = getelementptr inbounds nuw i8, ptr %4, i64 8
  %16 = load ptr, ptr %15, align 8, !tbaa !15
  %.not16.i.i = icmp eq ptr %16, null
  br i1 %.not16.i.i, label %ftp_set_dir.exit.thread, label %17

17:                                               ; preds = %14
  %18 = call i64 @strlen(ptr noundef nonnull dereferenceable(1) %2) #11
  %19 = trunc i64 %18 to i32
  %20 = call i32 @ffurl_write2(ptr noundef nonnull %16, ptr noundef nonnull %2, i32 noundef %19) #10
  %or.cond.i = icmp slt i32 %20, 1
  br i1 %or.cond.i, label %ftp_set_dir.exit.thread, label %ftp_send_command.exit.i

ftp_send_command.exit.i:                          ; preds = %17
  %21 = call fastcc i32 @ftp_status(ptr noundef nonnull %4, ptr noundef null, ptr noundef nonnull @ftp_set_dir.cwd_codes)
  %.fr.i = freeze i32 %21
  %.not.i = icmp eq i32 %.fr.i, 250
  br i1 %.not.i, label %22, label %ftp_set_dir.exit.thread

ftp_set_dir.exit.thread:                          ; preds = %9, %14, %17, %ftp_send_command.exit.i
  %.0.i.ph = phi i32 [ -5, %ftp_send_command.exit.i ], [ -5, %17 ], [ -5, %14 ], [ -38, %9 ]
  call void @llvm.lifetime.end.p0(i64 4096, ptr nonnull %2) #10
  br label %ftp_list.exit.thread

22:                                               ; preds = %ftp_send_command.exit.i
  call void @llvm.lifetime.end.p0(i64 4096, ptr nonnull %2) #10
  %23 = call fastcc i32 @ftp_connect_data_connection(ptr noundef nonnull %0)
  %24 = icmp slt i32 %23, 0
  br i1 %24, label %ftp_list.exit.thread, label %25

25:                                               ; preds = %22
  %26 = getelementptr inbounds nuw i8, ptr %4, i64 1140
  store i32 4, ptr %26, align 4, !tbaa !23
  %27 = load ptr, ptr %15, align 8, !tbaa !15
  %.not16.i.i.i = icmp eq ptr %27, null
  br i1 %.not16.i.i.i, label %ftp_list.exit.thread, label %28

28:                                               ; preds = %25
  %29 = call i32 @ffurl_write2(ptr noundef nonnull %27, ptr noundef nonnull @.str.49, i32 noundef 6) #10
  %or.cond.i.i = icmp slt i32 %29, 1
  br i1 %or.cond.i.i, label %31, label %ftp_send_command.exit.i.i

ftp_send_command.exit.i.i:                        ; preds = %28
  %30 = call fastcc i32 @ftp_status(ptr noundef nonnull %4, ptr noundef null, ptr noundef nonnull @ftp_list_mlsd.mlsd_codes)
  %.not.i.i = icmp eq i32 %30, 150
  br i1 %.not.i.i, label %35, label %31

31:                                               ; preds = %ftp_send_command.exit.i.i, %28
  %.pr.i = load ptr, ptr %15, align 8, !tbaa !15
  %.not16.i.i4.i = icmp eq ptr %.pr.i, null
  br i1 %.not16.i.i4.i, label %ftp_list.exit.thread, label %32

32:                                               ; preds = %31
  %33 = call i32 @ffurl_write2(ptr noundef nonnull %.pr.i, ptr noundef nonnull @.str.50, i32 noundef 6) #10
  %or.cond.i5.i = icmp slt i32 %33, 1
  br i1 %or.cond.i5.i, label %ftp_list.exit.thread, label %ftp_send_command.exit.i6.i

ftp_send_command.exit.i6.i:                       ; preds = %32
  %34 = call fastcc i32 @ftp_status(ptr noundef nonnull %4, ptr noundef null, ptr noundef nonnull @ftp_list_nlst.nlst_codes)
  %.not.i7.i = icmp eq i32 %34, 226
  br i1 %.not.i7.i, label %35, label %ftp_list.exit.thread

35:                                               ; preds = %ftp_send_command.exit.i6.i, %ftp_send_command.exit.i.i
  %.sink.i = phi i32 [ 2, %ftp_send_command.exit.i.i ], [ 1, %ftp_send_command.exit.i6.i ]
  %36 = getelementptr inbounds nuw i8, ptr %4, i64 1144
  store i32 %.sink.i, ptr %36, align 8, !tbaa !27
  %37 = call noalias ptr @av_malloc(i64 noundef 4096) #10
  %38 = getelementptr inbounds nuw i8, ptr %4, i64 1160
  store ptr %37, ptr %38, align 8, !tbaa !28
  %.not = icmp eq ptr %37, null
  br i1 %.not, label %ftp_list.exit.thread, label %39

39:                                               ; preds = %35
  store i8 0, ptr %37, align 1, !tbaa !29
  %40 = getelementptr inbounds nuw i8, ptr %4, i64 16
  %41 = load ptr, ptr %40, align 8, !tbaa !24
  %.not20 = icmp eq ptr %41, null
  br i1 %.not20, label %ftp_list.exit.thread, label %42

42:                                               ; preds = %39
  %43 = load i32, ptr %26, align 4, !tbaa !23
  %44 = icmp eq i32 %43, 4
  br i1 %44, label %49, label %ftp_list.exit.thread

ftp_list.exit.thread:                             ; preds = %25, %32, %31, %ftp_send_command.exit.i6.i, %ftp_set_dir.exit.thread, %35, %39, %42, %22, %1
  %.0 = phi i32 [ %7, %1 ], [ %23, %22 ], [ 0, %42 ], [ 0, %39 ], [ -12, %35 ], [ %.0.i.ph, %ftp_set_dir.exit.thread ], [ -38, %ftp_send_command.exit.i6.i ], [ -38, %31 ], [ -38, %32 ], [ -38, %25 ]
  %45 = getelementptr inbounds nuw i8, ptr %4, i64 8
  %46 = call i32 @ffurl_closep(ptr noundef nonnull %45) #10
  %47 = getelementptr inbounds nuw i8, ptr %4, i64 16
  %48 = call i32 @ffurl_closep(ptr noundef nonnull %47) #10
  br label %49

49:                                               ; preds = %42, %ftp_list.exit.thread
  %.014 = phi i32 [ %.0, %ftp_list.exit.thread ], [ 0, %42 ]
  ret i32 %.014
}